target datalayout = "e-m:e-p270:32:32-p271:32:32-p272:64:64-i64:64-i128:128-f80:128-n8:16:32:64-S128"
target triple = "x86_64-pc-linux-gnu"

@.str.2 = private unnamed_addr constant [103 x i8] c"generated/home/dtcxzyw/WorkSpace/Projects/compilers/llvm-opt-benchmark/bench/hdf5/hdf5/src/H5FScache.c\00", align 1
@H5E_FSPACE_g = external global i64, align 8
@H5E_CANTFREE_g = external global i64, align 8
@.str.26 = private unnamed_addr constant [34 x i8] c"unable to destroy free space info\00", align 1
@__func__.H5FS__cache_sinfo_free_icr = private unnamed_addr constant [27 x i8] c"H5FS__cache_sinfo_free_icr\00", align 1

; Function Attrs: nounwind uwtable
define internal i32 @H5FS__cache_sinfo_free_icr(ptr noundef %0) #0 {
  %2 = alloca ptr, align 8
  %3 = alloca ptr, align 8
  %4 = alloca i32, align 4
  %5 = alloca i8, align 1
  store ptr %0, ptr %2, align 8
  %6 = load ptr, ptr %2, align 8
  store ptr %6, ptr %3, align 8
  store i32 0, ptr %4, align 4
  store i8 0, ptr %5, align 1
  %7 = load ptr, ptr %3, align 8
  %8 = call i32 @H5FS__sinfo_dest(ptr noundef %7)
  %9 = icmp slt i32 %8, 0
  br i1 %9, label %10, label %25

10:                                               ; preds = %1
  br label %11

11:                                               ; preds = %10
  br label %12

12:                                               ; preds = %11
  br label %13

13:                                               ; preds = %12
  %14 = load i64, ptr @H5E_FSPACE_g, align 8
  %15 = load i64, ptr @H5E_CANTFREE_g, align 8
  %16 = call i32 (ptr, ptr, i32, i64, i64, ptr, ...) @H5E_printf_stack(ptr noundef @.str.2, ptr noundef @__func__.H5FS__cache_sinfo_free_icr, i32 noundef 1353, i64 noundef %14, i64 noundef %15, ptr noundef @.str.26)
  br label %17

17:                                               ; preds = %13
  store i8 1, ptr %5, align 1
  %18 = load i8, ptr %5, align 1
  %19 = trunc i8 %18 to i1
  %20 = zext i1 %19 to i8
  store i8 %20, ptr %5, align 1
  br label %21

21:                                               ; preds = %17
  br label %22

22:                                               ; preds = %21
  store i32 -1, ptr %4, align 4
  br label %26

23:                                               ; No predecessors!
  br label %24

24:                                               ; preds = %23
  br label %25

25:                                               ; preds = %24, %1
  br label %26

26:                                               ; preds = %25, %22
  %27 = load i32, ptr %4, align 4
  ret i32 %27
}